Certificate:
    Data:
        Version: 3 (0x2)
        Serial Number: 6 (0x6)
        Signature Algorithm: sha256WithRSAEncryption
        Issuer: C=CH, ST=Zurich, L=Zurich, O=iMovies, CN=ca_root/emailAddress=aldeleze@student.ethz.ch
        Validity
            Not Before: Oct 20 20:57:44 2020 GMT
            Not After : Oct 20 20:57:44 2021 GMT
        Subject: C=CH, ST=Zurich, O=iMovies, CN=vpn/emailAddress=aldeleze@student.ethz.ch
        Subject Public Key Info:
            Public Key Algorithm: rsaEncryption
                RSA Public-Key: (2048 bit)
                Modulus:
                    00:c2:ba:a4:4a:77:3d:a6:08:88:53:22:c6:fe:98:
                    98:31:ad:49:29:b8:11:24:ae:a6:05:eb:8a:c5:18:
                    58:47:f5:3e:e6:21:d7:b2:5c:aa:79:11:cc:fd:d5:
                    49:26:f1:f6:81:58:95:30:81:95:cd:30:c9:33:1a:
                    ad:39:10:7c:e7:f3:70:03:3d:6f:4d:02:d0:da:02:
                    bd:e0:ae:1b:a2:f2:e1:67:18:ef:e5:a3:67:98:38:
                    7d:32:35:3e:d5:06:c8:05:64:b6:ea:f2:1d:81:19:
                    97:53:21:7e:4c:22:05:c0:1d:e5:0a:ed:0a:63:b2:
                    a6:e9:17:1d:6f:ce:de:4f:ec:c6:8d:86:cb:e6:a7:
                    20:93:a8:7f:2b:0e:d6:22:62:e4:54:1c:52:a6:49:
                    17:58:f5:12:99:77:4a:1b:7d:6b:56:46:04:6d:4a:
                    9f:a7:fb:15:0a:25:d6:ae:b6:11:2b:29:bc:68:95:
                    9e:2e:dd:c9:29:85:12:d6:02:19:a8:aa:23:29:15:
                    37:99:ae:7e:32:59:d5:5a:48:4a:08:e5:16:6e:aa:
                    95:bc:b7:19:96:84:a0:b3:ed:f3:ea:5f:b9:13:e9:
                    6f:9d:49:db:2a:47:e0:43:06:f9:a5:6a:b0:41:c8:
                    9b:6c:ce:7e:53:a2:92:3d:45:7c:13:90:fc:ca:46:
                    59:55
                Exponent: 65537 (0x10001)
        X509v3 extensions:
            X509v3 Basic Constraints: 
                CA:FALSE
            Netscape Comment: 
                OpenSSL Generated Certificate
            X509v3 Subject Key Identifier: 
                C9:89:97:2A:35:53:01:29:FB:97:73:A8:9E:19:1E:F6:B9:7B:AF:91
            X509v3 Authority Key Identifier: 
                keyid:DF:3B:2F:E5:B0:57:33:9A:CC:48:FA:D8:90:8F:39:FF:9A:43:67:FF

    Signature Algorithm: sha256WithRSAEncryption
         7c:50:67:e6:15:02:52:95:4c:7f:53:fd:95:f9:3d:be:22:2e:
         a9:35:50:76:cd:23:76:b2:87:d8:1c:a2:5a:fd:ae:a8:88:78:
         49:d6:20:15:bf:96:2d:1b:aa:92:12:a4:36:76:c9:5e:90:e1:
         e0:f5:a5:f8:f8:5c:0f:b9:a3:06:7c:43:9b:d4:c5:19:65:61:
         3c:0e:be:b4:7e:e8:aa:5e:e6:a4:3f:7d:ea:11:9c:95:b7:80:
         33:89:62:80:16:9a:7c:fd:94:16:5b:7d:ab:6a:a2:f5:70:e8:
         85:29:50:1d:fe:97:38:25:43:3f:e5:a5:24:77:9a:20:48:6e:
         73:d9:39:60:6b:43:1b:96:20:19:bb:1d:80:ee:a8:76:71:2c:
         70:dc:48:66:31:fd:5d:42:93:69:bb:23:cb:8d:53:ae:72:2e:
         61:e5:15:b0:07:a7:09:cd:6f:88:16:60:ac:7d:1f:31:75:82:
         37:6d:e3:1a:bb:d6:5d:4e:cb:65:70:03:dd:51:92:b5:87:7e:
         f4:ec:2b:cd:f9:d5:2c:ef:06:c5:ba:f9:f4:d0:b9:e4:1e:9b:
         18:ec:e2:91:6b:7d:25:48:3e:95:0c:a2:c4:97:53:35:44:ce:
         04:0e:79:3e:a1:0f:96:24:32:b2:92:79:78:40:00:76:73:60:
         8d:cd:25:82
-----BEGIN CERTIFICATE-----
MIID2TCCAsGgAwIBAgIBBjANBgkqhkiG9w0BAQsFADB8MQswCQYDVQQGEwJDSDEP
MA0GA1UECAwGWnVyaWNoMQ8wDQYDVQQHDAZadXJpY2gxEDAOBgNVBAoMB2lNb3Zp
ZXMxEDAOBgNVBAMMB2NhX3Jvb3QxJzAlBgkqhkiG9w0BCQEWGGFsZGVsZXplQHN0
dWRlbnQuZXRoei5jaDAeFw0yMDEwMjAyMDU3NDRaFw0yMTEwMjAyMDU3NDRaMGcx
CzAJBgNVBAYTAkNIMQ8wDQYDVQQIDAZadXJpY2gxEDAOBgNVBAoMB2lNb3ZpZXMx
DDAKBgNVBAMMA3ZwbjEnMCUGCSqGSIb3DQEJARYYYWxkZWxlemVAc3R1ZGVudC5l
dGh6LmNoMIIBIjANBgkqhkiG9w0BAQEFAAOCAQ8AMIIBCgKCAQEAwrqkSnc9pgiI
UyLG/piYMa1JKbgRJK6mBeuKxRhYR/U+5iHXslyqeRHM/dVJJvH2gViVMIGVzTDJ
MxqtORB85/NwAz1vTQLQ2gK94K4bovLhZxjv5aNnmDh9MjU+1QbIBWS26vIdgRmX
UyF+TCIFwB3lCu0KY7Km6Rcdb87eT+zGjYbL5qcgk6h/Kw7WImLkVBxSpkkXWPUS
mXdKG31rVkYEbUqfp/sVCiXWrrYRKym8aJWeLt3JKYUS1gIZqKojKRU3ma5+MlnV
WkhKCOUWbqqVvLcZloSgs+3z6l+5E+lvnUnbKkfgQwb5pWqwQcibbM5+U6KSPUV8
E5D8ykZZVQIDAQABo3sweTAJBgNVHRMEAjAAMCwGCWCGSAGG+EIBDQQfFh1PcGVu
U1NMIEdlbmVyYXRlZCBDZXJ0aWZpY2F0ZTAdBgNVHQ4EFgQUyYmXKjVTASn7l3Oo
nhke9rl7r5EwHwYDVR0jBBgwFoAU3zsv5bBXM5rMSPrYkI85/5pDZ/8wDQYJKoZI
hvcNAQELBQADggEBAHxQZ+YVAlKVTH9T/ZX5Pb4iLqk1UHbNI3ayh9gcolr9rqiI
eEnWIBW/li0bqpISpDZ2yV6Q4eD1pfj4XA+5owZ8Q5vUxRllYTwOvrR+6Kpe5qQ/
feoRnJW3gDOJYoAWmnz9lBZbfatqovVw6IUpUB3+lzglQz/lpSR3miBIbnPZOWBr
QxuWIBm7HYDuqHZxLHDcSGYx/V1Ck2m7I8uNU65yLmHlFbAHpwnNb4gWYKx9HzF1
gjdt4xq71l1Oy2VwA91RkrWHfvTsK8351SzvBsW6+fTQueQemxjs4pFrfSVIPpUM
osSXUzVEzgQOeT6hD5YkMrKSeXhAAHZzYI3NJYI=
-----END CERTIFICATE-----
