Certificate:
    Data:
        Version: 3 (0x2)
        Serial Number: 2 (0x2)
        Signature Algorithm: sha256WithRSAEncryption
        Issuer: C=CH, ST=Zurich, L=Zurich, O=iMovies, CN=ca_root/emailAddress=aldeleze@student.ethz.ch
        Validity
            Not Before: Oct 20 20:45:40 2020 GMT
            Not After : Oct 20 20:45:40 2021 GMT
        Subject: C=CH, ST=Zurich, O=iMovies, CN=mysql/emailAddress=aldeleze@student.ethz.ch
        Subject Public Key Info:
            Public Key Algorithm: rsaEncryption
                RSA Public-Key: (2048 bit)
                Modulus:
                    00:bd:82:1c:eb:72:d6:71:40:5d:2b:fa:19:55:96:
                    e3:23:ea:de:a6:df:1d:44:26:23:c9:df:d1:13:f7:
                    7a:61:f4:68:7b:07:a8:11:38:a4:f6:dd:e3:34:f7:
                    ff:c4:90:5c:27:2a:4d:c6:d0:e6:c4:5f:bd:16:27:
                    14:bb:88:c0:57:32:4d:40:d2:ad:58:f8:c4:04:a7:
                    c8:0a:e4:12:10:0c:e1:4b:84:be:c8:83:c1:7a:19:
                    24:aa:6b:bd:82:1b:cd:32:a8:fd:69:c2:a4:87:47:
                    3e:46:f2:ae:b3:f0:29:14:7b:4e:22:69:4a:cd:96:
                    8d:2f:21:29:7d:d4:9f:65:be:4c:90:07:c2:79:ea:
                    0f:d3:32:0c:9d:3c:16:90:79:56:12:b4:e0:3d:e4:
                    ce:ae:6c:1b:0a:50:c1:70:b9:6f:65:fb:1d:c9:97:
                    c6:ba:06:4d:77:60:a9:1f:8a:f5:78:9e:d3:74:f9:
                    a2:6f:be:6a:23:02:14:07:56:d0:43:9f:2b:e3:ca:
                    5e:80:33:5e:55:8c:ce:60:24:4d:12:c3:78:73:7a:
                    13:2c:f1:13:77:48:f6:44:00:1d:01:76:6e:0f:b9:
                    2c:43:bd:95:36:6a:0e:07:56:a7:12:13:a0:d6:5f:
                    cc:73:07:00:ed:dd:a2:02:62:39:1d:e7:5a:7d:74:
                    d6:7b
                Exponent: 65537 (0x10001)
        X509v3 extensions:
            X509v3 Basic Constraints: 
                CA:FALSE
            Netscape Comment: 
                OpenSSL Generated Certificate
            X509v3 Subject Key Identifier: 
                41:C5:9B:76:32:0B:36:95:AF:9F:A7:32:9A:53:8D:0F:F3:4D:8D:6E
            X509v3 Authority Key Identifier: 
                keyid:DF:3B:2F:E5:B0:57:33:9A:CC:48:FA:D8:90:8F:39:FF:9A:43:67:FF

    Signature Algorithm: sha256WithRSAEncryption
         83:37:48:0a:23:ed:53:70:0e:aa:95:7e:81:7a:c5:eb:34:57:
         e6:df:8d:9f:bc:db:1b:65:8b:dc:14:9a:87:7c:35:9b:68:38:
         1d:ea:57:6a:26:3b:a4:f7:d0:51:56:cc:9e:76:6e:2e:62:f6:
         56:dd:ce:01:d3:7e:ee:92:27:73:36:b8:72:9e:6b:d2:13:28:
         16:2f:0f:32:f8:22:78:e6:fe:1d:16:53:54:a6:cf:3d:d6:a0:
         38:be:3c:59:7d:a9:cf:64:22:b7:f0:e2:52:c0:b2:f7:40:e9:
         88:6b:da:78:48:29:97:a5:79:fd:df:d0:8e:3b:5b:cc:61:c6:
         e4:c1:b9:30:52:ff:26:c6:bd:06:5f:99:33:85:a3:3d:a7:bd:
         43:aa:b9:39:ba:dd:64:6f:96:32:90:8f:c3:d2:a7:73:f0:32:
         30:0c:34:72:7d:de:f8:96:09:16:c9:b6:82:08:b6:46:4b:4a:
         61:73:d3:31:60:ad:e7:24:9c:9f:e4:0c:ba:93:75:47:97:97:
         88:ef:0c:24:2e:e2:6d:54:a4:0d:c1:2f:8d:8f:f3:72:b8:c6:
         80:7f:b3:64:46:41:f7:5c:78:6c:95:5a:37:6e:21:ab:3d:de:
         1d:03:64:9e:05:39:c6:8d:be:cf:ea:03:88:40:41:92:29:e6:
         1d:de:c9:85
-----BEGIN CERTIFICATE-----
MIID2zCCAsOgAwIBAgIBAjANBgkqhkiG9w0BAQsFADB8MQswCQYDVQQGEwJDSDEP
MA0GA1UECAwGWnVyaWNoMQ8wDQYDVQQHDAZadXJpY2gxEDAOBgNVBAoMB2lNb3Zp
ZXMxEDAOBgNVBAMMB2NhX3Jvb3QxJzAlBgkqhkiG9w0BCQEWGGFsZGVsZXplQHN0
dWRlbnQuZXRoei5jaDAeFw0yMDEwMjAyMDQ1NDBaFw0yMTEwMjAyMDQ1NDBaMGkx
CzAJBgNVBAYTAkNIMQ8wDQYDVQQIDAZadXJpY2gxEDAOBgNVBAoMB2lNb3ZpZXMx
DjAMBgNVBAMMBW15c3FsMScwJQYJKoZIhvcNAQkBFhhhbGRlbGV6ZUBzdHVkZW50
LmV0aHouY2gwggEiMA0GCSqGSIb3DQEBAQUAA4IBDwAwggEKAoIBAQC9ghzrctZx
QF0r+hlVluMj6t6m3x1EJiPJ39ET93ph9Gh7B6gROKT23eM09//EkFwnKk3G0ObE
X70WJxS7iMBXMk1A0q1Y+MQEp8gK5BIQDOFLhL7Ig8F6GSSqa72CG80yqP1pwqSH
Rz5G8q6z8CkUe04iaUrNlo0vISl91J9lvkyQB8J56g/TMgydPBaQeVYStOA95M6u
bBsKUMFwuW9l+x3Jl8a6Bk13YKkfivV4ntN0+aJvvmojAhQHVtBDnyvjyl6AM15V
jM5gJE0Sw3hzehMs8RN3SPZEAB0Bdm4PuSxDvZU2ag4HVqcSE6DWX8xzBwDt3aIC
Yjkd51p9dNZ7AgMBAAGjezB5MAkGA1UdEwQCMAAwLAYJYIZIAYb4QgENBB8WHU9w
ZW5TU0wgR2VuZXJhdGVkIENlcnRpZmljYXRlMB0GA1UdDgQWBBRBxZt2Mgs2la+f
pzKaU40P802NbjAfBgNVHSMEGDAWgBTfOy/lsFczmsxI+tiQjzn/mkNn/zANBgkq
hkiG9w0BAQsFAAOCAQEAgzdICiPtU3AOqpV+gXrF6zRX5t+Nn7zbG2WL3BSah3w1
m2g4HepXaiY7pPfQUVbMnnZuLmL2Vt3OAdN+7pIncza4cp5r0hMoFi8PMvgieOb+
HRZTVKbPPdagOL48WX2pz2Qit/DiUsCy90DpiGvaeEgpl6V5/d/QjjtbzGHG5MG5
MFL/Jsa9Bl+ZM4WjPae9Q6q5ObrdZG+WMpCPw9Knc/AyMAw0cn3e+JYJFsm2ggi2
RktKYXPTMWCt5yScn+QMupN1R5eXiO8MJC7ibVSkDcEvjY/zcrjGgH+zZEZB91x4
bJVaN24hqz3eHQNkngU5xo2+z+oDiEBBkinmHd7JhQ==
-----END CERTIFICATE-----
