Certificate:
    Data:
        Version: 3 (0x2)
        Serial Number: 4 (0x4)
        Signature Algorithm: sha256WithRSAEncryption
        Issuer: C=CH, ST=Zurich, L=Zurich, O=iMovies, CN=ca_root/emailAddress=aldeleze@student.ethz.ch
        Validity
            Not Before: Oct 20 20:52:43 2020 GMT
            Not After : Oct 20 20:52:43 2021 GMT
        Subject: C=CH, ST=Zurich, O=iMovies, CN=firewall/emailAddress=aldeleze@student.ethz.ch
        Subject Public Key Info:
            Public Key Algorithm: rsaEncryption
                RSA Public-Key: (2048 bit)
                Modulus:
                    00:b4:8a:ea:94:f3:5d:1f:c3:0c:dd:49:7b:34:27:
                    cd:f3:ef:1c:67:52:d8:11:e7:ba:6f:c4:19:b9:0c:
                    10:c7:7b:88:12:b4:f7:4b:17:69:0f:3c:85:31:86:
                    a9:5f:b6:10:54:a8:40:1d:41:bc:74:a9:93:74:05:
                    27:7e:34:d5:52:af:a8:ce:b4:f4:88:b3:64:59:84:
                    1d:e8:83:91:40:34:50:c6:56:a7:b5:a6:2f:b5:01:
                    2b:04:9c:3d:af:93:3c:10:a3:d7:70:93:bf:be:75:
                    73:21:55:06:fe:40:13:47:ee:2e:4d:da:4f:3c:ca:
                    70:0b:7e:c8:20:c8:b0:87:31:3c:7c:45:50:8f:99:
                    f7:36:72:11:d3:80:02:74:7d:3d:9a:20:22:60:b3:
                    43:80:e1:0a:e0:b0:37:6c:3c:eb:ce:92:eb:d5:f0:
                    75:d1:05:32:7d:46:7d:69:5a:d9:f1:57:25:1c:97:
                    50:c9:14:9f:f8:0f:e6:15:64:4e:d1:77:5f:1d:bf:
                    ef:e1:d7:dd:0f:e7:ec:c7:de:e2:cf:42:09:f5:07:
                    fe:32:0d:6c:a2:cb:7e:82:56:e1:81:93:47:d5:05:
                    83:f1:af:70:bd:f7:76:6f:88:58:8b:12:26:27:30:
                    94:44:73:45:ea:f8:af:fe:90:bc:84:17:13:4e:31:
                    f5:d5
                Exponent: 65537 (0x10001)
        X509v3 extensions:
            X509v3 Basic Constraints: 
                CA:FALSE
            Netscape Comment: 
                OpenSSL Generated Certificate
            X509v3 Subject Key Identifier: 
                53:CD:37:C8:AC:19:06:82:8F:57:B3:01:3A:0D:DB:59:14:C5:0D:93
            X509v3 Authority Key Identifier: 
                keyid:DF:3B:2F:E5:B0:57:33:9A:CC:48:FA:D8:90:8F:39:FF:9A:43:67:FF

    Signature Algorithm: sha256WithRSAEncryption
         bf:35:98:4f:c8:74:72:b2:7b:30:6b:c7:a5:79:59:b6:ed:d2:
         7b:cd:de:05:f5:d4:42:a7:8a:0d:03:99:ec:fe:69:bf:50:34:
         70:b8:ec:1a:1f:c7:0a:c3:4f:27:9a:52:49:fc:fb:96:5e:91:
         7f:4c:81:b2:9e:75:9f:d1:05:d2:53:31:5f:50:3d:f0:a4:67:
         93:ce:d4:c7:b8:48:35:23:db:f3:80:7a:2c:20:48:cb:a5:e4:
         33:87:ea:11:cd:d0:81:1a:fc:f0:81:4b:4c:79:b2:51:b1:8f:
         7a:b7:94:80:32:0b:33:f1:52:a6:4f:1a:df:74:73:e8:85:1d:
         73:31:86:cc:21:94:7a:3c:b3:66:31:ec:01:c1:7e:bf:0e:a5:
         c4:54:24:4d:2e:82:d9:81:67:40:39:d4:6f:8b:9d:bd:4a:c4:
         77:bd:ee:8f:a4:8d:16:d7:de:9f:a5:05:7e:cd:9e:a0:ad:d6:
         57:06:c0:3e:bd:61:33:8f:e8:7c:f7:6a:35:9d:80:0b:95:12:
         14:50:58:b6:6b:a3:e0:8c:66:86:11:5f:6b:85:b6:01:06:f7:
         e6:28:c6:51:7e:07:2a:92:be:3b:b7:c6:23:a4:33:d0:44:b9:
         89:34:2b:be:22:cd:47:99:9a:5c:31:5d:cf:b8:b2:a9:a3:35:
         8d:ee:5c:86
-----BEGIN CERTIFICATE-----
MIID3jCCAsagAwIBAgIBBDANBgkqhkiG9w0BAQsFADB8MQswCQYDVQQGEwJDSDEP
MA0GA1UECAwGWnVyaWNoMQ8wDQYDVQQHDAZadXJpY2gxEDAOBgNVBAoMB2lNb3Zp
ZXMxEDAOBgNVBAMMB2NhX3Jvb3QxJzAlBgkqhkiG9w0BCQEWGGFsZGVsZXplQHN0
dWRlbnQuZXRoei5jaDAeFw0yMDEwMjAyMDUyNDNaFw0yMTEwMjAyMDUyNDNaMGwx
CzAJBgNVBAYTAkNIMQ8wDQYDVQQIDAZadXJpY2gxEDAOBgNVBAoMB2lNb3ZpZXMx
ETAPBgNVBAMMCGZpcmV3YWxsMScwJQYJKoZIhvcNAQkBFhhhbGRlbGV6ZUBzdHVk
ZW50LmV0aHouY2gwggEiMA0GCSqGSIb3DQEBAQUAA4IBDwAwggEKAoIBAQC0iuqU
810fwwzdSXs0J83z7xxnUtgR57pvxBm5DBDHe4gStPdLF2kPPIUxhqlfthBUqEAd
Qbx0qZN0BSd+NNVSr6jOtPSIs2RZhB3og5FANFDGVqe1pi+1ASsEnD2vkzwQo9dw
k7++dXMhVQb+QBNH7i5N2k88ynALfsggyLCHMTx8RVCPmfc2chHTgAJ0fT2aICJg
s0OA4QrgsDdsPOvOkuvV8HXRBTJ9Rn1pWtnxVyUcl1DJFJ/4D+YVZE7Rd18dv+/h
190P5+zH3uLPQgn1B/4yDWyiy36CVuGBk0fVBYPxr3C993ZviFiLEiYnMJREc0Xq
+K/+kLyEFxNOMfXVAgMBAAGjezB5MAkGA1UdEwQCMAAwLAYJYIZIAYb4QgENBB8W
HU9wZW5TU0wgR2VuZXJhdGVkIENlcnRpZmljYXRlMB0GA1UdDgQWBBRTzTfIrBkG
go9XswE6DdtZFMUNkzAfBgNVHSMEGDAWgBTfOy/lsFczmsxI+tiQjzn/mkNn/zAN
BgkqhkiG9w0BAQsFAAOCAQEAvzWYT8h0crJ7MGvHpXlZtu3Se83eBfXUQqeKDQOZ
7P5pv1A0cLjsGh/HCsNPJ5pSSfz7ll6Rf0yBsp51n9EF0lMxX1A98KRnk87Ux7hI
NSPb84B6LCBIy6XkM4fqEc3QgRr88IFLTHmyUbGPereUgDILM/FSpk8a33Rz6IUd
czGGzCGUejyzZjHsAcF+vw6lxFQkTS6C2YFnQDnUb4udvUrEd73uj6SNFtfen6UF
fs2eoK3WVwbAPr1hM4/ofPdqNZ2AC5USFFBYtmuj4IxmhhFfa4W2AQb35ijGUX4H
KpK+O7fGI6Qz0ES5iTQrviLNR5maXDFdz7iyqaM1je5chg==
-----END CERTIFICATE-----
