Certificate:
    Data:
        Version: 3 (0x2)
        Serial Number: 1 (0x1)
        Signature Algorithm: sha256WithRSAEncryption
        Issuer: C=CH, ST=Zurich, L=Zurich, O=iMovies, CN=ca_root/emailAddress=aldeleze@student.ethz.ch
        Validity
            Not Before: Oct 20 20:42:14 2020 GMT
            Not After : Oct 20 20:42:14 2021 GMT
        Subject: C=CH, ST=Zurich, O=iMovies, CN=backup/emailAddress=aldeleze@student.ethz.ch
        Subject Public Key Info:
            Public Key Algorithm: rsaEncryption
                RSA Public-Key: (2048 bit)
                Modulus:
                    00:bf:aa:f8:e7:94:ba:d6:c1:ef:3a:f5:2c:9b:2c:
                    16:6f:7e:ba:55:a0:bf:80:5a:21:6c:99:63:51:05:
                    6e:1b:1a:3c:e2:e5:bf:b6:95:da:0b:24:27:fb:00:
                    79:a6:66:c0:88:5c:0a:8e:c5:a6:77:ef:aa:d0:20:
                    38:47:31:77:f1:bc:9f:d6:cc:b0:9f:04:da:28:7f:
                    59:e8:87:7f:cb:4f:ff:fe:f0:15:39:1b:c2:a4:09:
                    6d:2d:95:fb:52:b9:16:dd:2b:85:9e:fd:a8:23:b4:
                    19:5f:22:23:6e:f1:a3:cf:5f:a1:f4:4a:51:f7:e8:
                    bd:0f:1d:7f:aa:df:39:30:36:1a:ae:4d:46:bf:7c:
                    a0:1e:44:70:9c:c8:ed:b3:44:85:37:37:af:74:bc:
                    23:3a:34:b0:ff:54:30:6a:b7:61:f6:f2:3f:d5:60:
                    1a:08:e3:5b:de:c2:c3:f5:b0:b3:c6:15:fe:08:a4:
                    cc:9b:5d:76:a9:49:99:b3:91:f3:39:07:ca:a6:85:
                    7c:b4:29:27:0e:eb:c6:da:f7:87:db:3a:51:ed:ab:
                    ce:e5:58:c1:59:cf:91:a1:53:23:77:c2:0c:a1:13:
                    0f:e6:d9:3e:92:e1:f7:be:e8:a6:4b:ba:81:a3:0a:
                    09:4a:a4:70:a3:13:cf:f8:e4:75:2f:09:bf:54:c9:
                    3f:59
                Exponent: 65537 (0x10001)
        X509v3 extensions:
            X509v3 Basic Constraints: 
                CA:FALSE
            Netscape Comment: 
                OpenSSL Generated Certificate
            X509v3 Subject Key Identifier: 
                D1:C7:DD:3F:AC:1A:10:60:BD:49:CB:87:37:64:6A:7F:CA:70:BF:C8
            X509v3 Authority Key Identifier: 
                keyid:DF:3B:2F:E5:B0:57:33:9A:CC:48:FA:D8:90:8F:39:FF:9A:43:67:FF

    Signature Algorithm: sha256WithRSAEncryption
         80:9a:1a:c4:15:ed:f2:0a:0a:2a:0a:e6:74:4e:99:d8:7a:a2:
         14:08:a6:b7:f4:8e:29:69:bb:e9:db:ad:6e:9b:c7:8e:a7:b8:
         0e:84:86:0f:88:aa:49:46:99:90:7e:f2:51:bf:8f:60:7a:e4:
         5c:9c:34:2a:a5:a1:04:43:39:18:51:b8:9a:7d:5f:7d:36:5a:
         eb:17:cc:9e:fe:be:3d:93:be:f0:8b:fc:4c:fc:20:ba:7d:56:
         c9:91:b9:71:59:0c:27:dd:84:ae:1a:c7:8b:da:e1:fb:b5:ff:
         e5:69:60:40:be:17:80:ed:1b:ef:74:46:a6:34:2d:30:8b:af:
         d9:5b:2d:77:d0:ac:4e:92:18:7f:26:90:c3:25:c0:20:1e:c8:
         5a:41:0b:61:fc:34:cf:93:cc:26:db:68:6e:11:06:34:5e:43:
         f2:06:68:f3:71:c0:cd:82:2a:96:bf:c3:ce:49:4c:5f:5c:b9:
         f7:78:d7:a5:9e:26:43:83:11:01:05:99:cb:23:b2:7e:59:a6:
         2e:c4:cb:c0:94:86:94:f5:07:a0:1f:35:1e:18:2f:b6:7c:b9:
         f2:48:9d:fc:fe:b3:6b:01:05:a8:9b:8f:1c:96:f4:c6:80:6d:
         9a:44:3f:3d:40:65:35:f3:ba:ea:77:33:6f:4e:65:08:6a:8f:
         78:dc:26:8d
-----BEGIN CERTIFICATE-----
MIID3DCCAsSgAwIBAgIBATANBgkqhkiG9w0BAQsFADB8MQswCQYDVQQGEwJDSDEP
MA0GA1UECAwGWnVyaWNoMQ8wDQYDVQQHDAZadXJpY2gxEDAOBgNVBAoMB2lNb3Zp
ZXMxEDAOBgNVBAMMB2NhX3Jvb3QxJzAlBgkqhkiG9w0BCQEWGGFsZGVsZXplQHN0
dWRlbnQuZXRoei5jaDAeFw0yMDEwMjAyMDQyMTRaFw0yMTEwMjAyMDQyMTRaMGox
CzAJBgNVBAYTAkNIMQ8wDQYDVQQIDAZadXJpY2gxEDAOBgNVBAoMB2lNb3ZpZXMx
DzANBgNVBAMMBmJhY2t1cDEnMCUGCSqGSIb3DQEJARYYYWxkZWxlemVAc3R1ZGVu
dC5ldGh6LmNoMIIBIjANBgkqhkiG9w0BAQEFAAOCAQ8AMIIBCgKCAQEAv6r455S6
1sHvOvUsmywWb366VaC/gFohbJljUQVuGxo84uW/tpXaCyQn+wB5pmbAiFwKjsWm
d++q0CA4RzF38byf1sywnwTaKH9Z6Id/y0///vAVORvCpAltLZX7UrkW3SuFnv2o
I7QZXyIjbvGjz1+h9EpR9+i9Dx1/qt85MDYark1Gv3ygHkRwnMjts0SFNzevdLwj
OjSw/1Qwardh9vI/1WAaCONb3sLD9bCzxhX+CKTMm112qUmZs5HzOQfKpoV8tCkn
DuvG2veH2zpR7avO5VjBWc+RoVMjd8IMoRMP5tk+kuH3vuimS7qBowoJSqRwoxPP
+OR1Lwm/VMk/WQIDAQABo3sweTAJBgNVHRMEAjAAMCwGCWCGSAGG+EIBDQQfFh1P
cGVuU1NMIEdlbmVyYXRlZCBDZXJ0aWZpY2F0ZTAdBgNVHQ4EFgQU0cfdP6waEGC9
ScuHN2Rqf8pwv8gwHwYDVR0jBBgwFoAU3zsv5bBXM5rMSPrYkI85/5pDZ/8wDQYJ
KoZIhvcNAQELBQADggEBAICaGsQV7fIKCioK5nROmdh6ohQIprf0jilpu+nbrW6b
x46nuA6Ehg+IqklGmZB+8lG/j2B65FycNCqloQRDORhRuJp9X302WusXzJ7+vj2T
vvCL/Ez8ILp9VsmRuXFZDCfdhK4ax4va4fu1/+VpYEC+F4DtG+90RqY0LTCLr9lb
LXfQrE6SGH8mkMMlwCAeyFpBC2H8NM+TzCbbaG4RBjReQ/IGaPNxwM2CKpa/w85J
TF9cufd416WeJkODEQEFmcsjsn5Zpi7Ey8CUhpT1B6AfNR4YL7Z8ufJInfz+s2sB
BaibjxyW9MaAbZpEPz1AZTXzuup3M29OZQhqj3jcJo0=
-----END CERTIFICATE-----
