Certificate:
    Data:
        Version: 3 (0x2)
        Serial Number: 1 (0x1)
        Signature Algorithm: sha256WithRSAEncryption
        Issuer: C=CH, ST=Zurich, L=Zurich, O=iMovies, CN=ca_root/emailAddress=aldeleze@student.ethz.ch
        Validity
            Not Before: Oct 20 20:25:33 2020 GMT
            Not After : Oct 20 20:25:33 2021 GMT
        Subject: C=CH, ST=Zurich, O=iMovies, CN=ca_server/emailAddress=aldeleze@student.ethz.ch
        Subject Public Key Info:
            Public Key Algorithm: rsaEncryption
                RSA Public-Key: (2048 bit)
                Modulus:
                    00:c8:b5:e4:12:1e:bd:53:ef:f3:47:50:a6:03:ae:
                    99:30:b0:f3:6f:1a:b5:e5:18:51:83:8d:8c:8c:ad:
                    57:99:f5:cf:de:41:75:95:89:6f:7d:51:12:ff:70:
                    b8:30:b5:2e:b6:27:52:1d:cf:8c:d7:85:1c:88:cb:
                    13:52:d4:e3:28:0d:77:96:6e:1b:16:62:93:21:53:
                    77:26:24:70:96:db:7a:fc:d7:19:a4:f5:e3:31:48:
                    00:c3:f2:72:49:ba:f8:c4:85:c6:5f:8e:34:84:9b:
                    58:d5:a2:c3:b5:dd:17:de:e9:e6:12:5c:4b:6a:d7:
                    10:26:c0:b2:03:05:f6:39:82:c3:ca:f0:5c:da:93:
                    2e:56:1b:32:71:9b:4b:c1:72:2b:3f:1b:99:2d:bc:
                    b7:1e:61:1e:9f:b2:2c:7b:aa:fc:d5:35:ef:e1:f0:
                    86:e9:28:a3:0a:e5:4f:1f:31:02:e3:c1:67:e4:dd:
                    d8:fa:cd:f9:82:4a:9e:d0:87:40:9c:68:2b:a5:0c:
                    b1:af:a9:7e:38:d1:fe:16:a0:59:9a:0d:b3:1d:93:
                    f0:68:01:45:83:6f:09:d6:72:be:89:94:b0:bc:c0:
                    3e:0d:6d:51:ba:cf:59:f5:af:b5:fd:ba:02:61:3c:
                    bc:40:ae:6c:52:19:12:34:78:7f:5c:1b:fb:b3:4e:
                    e6:61
                Exponent: 65537 (0x10001)
        X509v3 extensions:
            X509v3 Basic Constraints: 
                CA:FALSE
            Netscape Comment: 
                OpenSSL Generated Certificate
            X509v3 Subject Key Identifier: 
                3A:70:66:8D:D9:D3:60:6F:94:2C:9C:88:5D:ED:1A:53:35:50:B9:89
            X509v3 Authority Key Identifier: 
                keyid:DF:3B:2F:E5:B0:57:33:9A:CC:48:FA:D8:90:8F:39:FF:9A:43:67:FF

    Signature Algorithm: sha256WithRSAEncryption
         b0:6b:50:d7:5e:2a:dd:89:c3:3c:15:86:3b:88:39:8d:3b:f7:
         3d:da:fe:83:88:90:41:f3:5b:da:15:d7:55:10:af:ee:4f:a3:
         f7:f2:e1:ac:6c:c5:1d:0c:b2:db:23:76:78:43:ff:df:21:b2:
         28:6e:71:50:bd:c0:95:e2:6c:a9:fd:8d:19:7b:5d:f3:07:d7:
         72:f9:08:3b:ca:04:1a:a0:76:6b:9c:62:3c:b5:49:c8:64:30:
         b3:12:6f:fb:b6:31:6b:7e:55:c1:f5:fe:68:2e:9a:4e:fd:d5:
         3c:3f:93:df:ff:bd:01:99:da:f5:ed:74:ad:d7:0e:01:57:51:
         3a:18:45:7b:2c:8f:02:a4:e3:8d:fd:60:54:f8:d7:bc:78:cc:
         10:4c:d9:8b:2f:32:8e:52:a5:10:fb:e3:83:c8:14:2d:49:5e:
         ec:24:a5:15:8c:91:00:b9:7a:96:fb:fd:11:41:f1:63:aa:29:
         30:f9:c7:0c:8d:34:48:2c:fa:22:e2:06:51:db:ab:82:83:2f:
         03:fa:1e:3d:02:73:76:8a:cc:28:18:4a:d1:1f:1d:89:87:e9:
         2e:e1:d6:cc:56:65:13:97:cb:72:f6:c9:c1:ba:1a:27:4a:a9:
         91:ab:6b:32:fb:2b:3f:7b:64:26:52:22:a7:ba:ec:64:92:3c:
         89:0a:ad:46
-----BEGIN CERTIFICATE-----
MIID3zCCAsegAwIBAgIBATANBgkqhkiG9w0BAQsFADB8MQswCQYDVQQGEwJDSDEP
MA0GA1UECAwGWnVyaWNoMQ8wDQYDVQQHDAZadXJpY2gxEDAOBgNVBAoMB2lNb3Zp
ZXMxEDAOBgNVBAMMB2NhX3Jvb3QxJzAlBgkqhkiG9w0BCQEWGGFsZGVsZXplQHN0
dWRlbnQuZXRoei5jaDAeFw0yMDEwMjAyMDI1MzNaFw0yMTEwMjAyMDI1MzNaMG0x
CzAJBgNVBAYTAkNIMQ8wDQYDVQQIDAZadXJpY2gxEDAOBgNVBAoMB2lNb3ZpZXMx
EjAQBgNVBAMMCWNhX3NlcnZlcjEnMCUGCSqGSIb3DQEJARYYYWxkZWxlemVAc3R1
ZGVudC5ldGh6LmNoMIIBIjANBgkqhkiG9w0BAQEFAAOCAQ8AMIIBCgKCAQEAyLXk
Eh69U+/zR1CmA66ZMLDzbxq15RhRg42MjK1XmfXP3kF1lYlvfVES/3C4MLUutidS
Hc+M14UciMsTUtTjKA13lm4bFmKTIVN3JiRwltt6/NcZpPXjMUgAw/JySbr4xIXG
X440hJtY1aLDtd0X3unmElxLatcQJsCyAwX2OYLDyvBc2pMuVhsycZtLwXIrPxuZ
Lby3HmEen7Ise6r81TXv4fCG6SijCuVPHzEC48Fn5N3Y+s35gkqe0IdAnGgrpQyx
r6l+ONH+FqBZmg2zHZPwaAFFg28J1nK+iZSwvMA+DW1Rus9Z9a+1/boCYTy8QK5s
UhkSNHh/XBv7s07mYQIDAQABo3sweTAJBgNVHRMEAjAAMCwGCWCGSAGG+EIBDQQf
Fh1PcGVuU1NMIEdlbmVyYXRlZCBDZXJ0aWZpY2F0ZTAdBgNVHQ4EFgQUOnBmjdnT
YG+ULJyIXe0aUzVQuYkwHwYDVR0jBBgwFoAU3zsv5bBXM5rMSPrYkI85/5pDZ/8w
DQYJKoZIhvcNAQELBQADggEBALBrUNdeKt2JwzwVhjuIOY079z3a/oOIkEHzW9oV
11UQr+5Po/fy4axsxR0MstsjdnhD/98hsihucVC9wJXibKn9jRl7XfMH13L5CDvK
BBqgdmucYjy1SchkMLMSb/u2MWt+VcH1/mgumk791Tw/k9//vQGZ2vXtdK3XDgFX
UToYRXssjwKk4439YFT417x4zBBM2YsvMo5SpRD744PIFC1JXuwkpRWMkQC5epb7
/RFB8WOqKTD5xwyNNEgs+iLiBlHbq4KDLwP6Hj0Cc3aKzCgYStEfHYmH6S7h1sxW
ZROXy3L2ycG6GidKqZGrazL7Kz97ZCZSIqe67GSSPIkKrUY=
-----END CERTIFICATE-----
