Certificate:
    Data:
        Version: 3 (0x2)
        Serial Number: 3 (0x3)
        Signature Algorithm: sha256WithRSAEncryption
        Issuer: C=CH, ST=Zurich, L=Zurich, O=iMovies, CN=ca_root/emailAddress=aldeleze@student.ethz.ch
        Validity
            Not Before: Oct 20 20:48:57 2020 GMT
            Not After : Oct 20 20:48:57 2021 GMT
        Subject: C=CH, ST=Zurich, O=iMovies, CN=core/emailAddress=aldeleze@student.ethz.ch
        Subject Public Key Info:
            Public Key Algorithm: rsaEncryption
                RSA Public-Key: (2048 bit)
                Modulus:
                    00:9d:a5:d5:bc:1e:80:89:aa:a5:a6:8e:a2:c4:94:
                    dd:b9:2d:d6:6a:85:76:2b:98:00:19:e8:95:25:70:
                    67:2c:5a:5d:aa:8f:cf:3a:9e:ea:84:13:04:87:f8:
                    24:fa:ce:39:fc:66:af:ac:d7:66:e4:c3:db:31:7c:
                    4d:7e:51:9a:99:ad:80:4b:85:32:a1:30:4f:65:44:
                    6c:7a:12:f8:ae:94:1a:3e:21:a2:1d:5e:71:7e:b7:
                    e9:36:82:5e:54:a5:56:e7:8d:4b:55:96:38:97:39:
                    00:6c:6e:44:5b:6b:0c:94:17:cb:ab:d8:92:8c:6f:
                    db:43:d4:c5:d7:53:31:67:84:2e:fc:02:b0:78:4d:
                    2a:25:d7:c3:7e:46:46:e1:03:90:63:6c:00:1b:e1:
                    ff:5c:9d:12:b5:55:cf:a0:c2:7f:f9:2c:5c:2c:d6:
                    51:3a:5f:7a:4d:61:d0:19:80:70:43:ec:61:73:7b:
                    79:5a:07:10:cd:3e:ba:da:72:41:7c:3e:ac:3b:24:
                    81:c7:be:b6:de:50:aa:80:dc:c4:ec:87:15:f0:2f:
                    d1:b4:fd:ce:64:d6:62:ed:30:e4:3a:05:f1:ca:96:
                    51:a4:d9:9f:c5:de:ff:54:0f:cd:e0:7e:ae:19:a6:
                    1b:d0:21:76:3b:33:3d:e8:c1:d1:b2:ec:0c:59:c9:
                    e2:0f
                Exponent: 65537 (0x10001)
        X509v3 extensions:
            X509v3 Basic Constraints: 
                CA:FALSE
            Netscape Comment: 
                OpenSSL Generated Certificate
            X509v3 Subject Key Identifier: 
                9B:0C:61:65:1C:F2:DD:06:4C:13:3F:95:CD:3F:25:E4:EC:46:F7:21
            X509v3 Authority Key Identifier: 
                keyid:DF:3B:2F:E5:B0:57:33:9A:CC:48:FA:D8:90:8F:39:FF:9A:43:67:FF

    Signature Algorithm: sha256WithRSAEncryption
         9c:12:36:72:c5:04:bd:51:8c:79:e2:44:a2:6f:9f:64:cc:81:
         52:af:a2:32:91:20:6f:57:b4:e1:27:f7:f3:fd:a2:e8:91:4d:
         6c:26:9f:cd:3f:cb:86:2a:ee:6e:f5:b0:1c:38:f7:e5:b0:d2:
         a3:6a:29:65:3f:2f:ef:f6:fb:77:6f:3f:9c:c6:67:8d:31:69:
         6d:65:8d:3b:3c:b3:27:d7:a7:e7:cc:a3:7b:33:0a:f2:81:ba:
         68:dc:a0:9b:ed:e4:3d:50:8d:8a:77:98:c7:c0:09:9e:3c:3a:
         a1:e4:34:c1:81:1b:20:c9:57:37:09:79:b9:c3:34:61:34:6a:
         23:ed:a9:b5:12:fd:95:67:1f:5a:04:23:54:0a:f9:36:bf:8b:
         70:df:ac:45:36:1c:95:c5:5a:08:f0:00:84:b2:cc:46:53:1e:
         29:9a:6f:9f:d7:ef:bd:02:d2:48:1e:b3:16:8d:ff:44:12:b0:
         c9:df:8a:d5:f9:df:fc:c8:ef:45:da:96:c3:ec:a6:dc:15:f3:
         a1:69:cf:9f:30:b9:e1:37:12:d9:c1:3f:1b:43:ff:00:b2:5a:
         a9:f7:fa:94:76:d1:2f:98:90:10:5c:1c:ac:29:3c:fc:2d:b2:
         83:33:2d:46:8f:6d:1e:56:81:8a:7c:dd:27:76:c6:8e:05:e6:
         0b:a1:0d:f4
-----BEGIN CERTIFICATE-----
MIID2jCCAsKgAwIBAgIBAzANBgkqhkiG9w0BAQsFADB8MQswCQYDVQQGEwJDSDEP
MA0GA1UECAwGWnVyaWNoMQ8wDQYDVQQHDAZadXJpY2gxEDAOBgNVBAoMB2lNb3Zp
ZXMxEDAOBgNVBAMMB2NhX3Jvb3QxJzAlBgkqhkiG9w0BCQEWGGFsZGVsZXplQHN0
dWRlbnQuZXRoei5jaDAeFw0yMDEwMjAyMDQ4NTdaFw0yMTEwMjAyMDQ4NTdaMGgx
CzAJBgNVBAYTAkNIMQ8wDQYDVQQIDAZadXJpY2gxEDAOBgNVBAoMB2lNb3ZpZXMx
DTALBgNVBAMMBGNvcmUxJzAlBgkqhkiG9w0BCQEWGGFsZGVsZXplQHN0dWRlbnQu
ZXRoei5jaDCCASIwDQYJKoZIhvcNAQEBBQADggEPADCCAQoCggEBAJ2l1bwegImq
paaOosSU3bkt1mqFdiuYABnolSVwZyxaXaqPzzqe6oQTBIf4JPrOOfxmr6zXZuTD
2zF8TX5RmpmtgEuFMqEwT2VEbHoS+K6UGj4hoh1ecX636TaCXlSlVueNS1WWOJc5
AGxuRFtrDJQXy6vYkoxv20PUxddTMWeELvwCsHhNKiXXw35GRuEDkGNsABvh/1yd
ErVVz6DCf/ksXCzWUTpfek1h0BmAcEPsYXN7eVoHEM0+utpyQXw+rDskgce+tt5Q
qoDcxOyHFfAv0bT9zmTWYu0w5DoF8cqWUaTZn8Xe/1QPzeB+rhmmG9AhdjszPejB
0bLsDFnJ4g8CAwEAAaN7MHkwCQYDVR0TBAIwADAsBglghkgBhvhCAQ0EHxYdT3Bl
blNTTCBHZW5lcmF0ZWQgQ2VydGlmaWNhdGUwHQYDVR0OBBYEFJsMYWUc8t0GTBM/
lc0/JeTsRvchMB8GA1UdIwQYMBaAFN87L+WwVzOazEj62JCPOf+aQ2f/MA0GCSqG
SIb3DQEBCwUAA4IBAQCcEjZyxQS9UYx54kSib59kzIFSr6IykSBvV7ThJ/fz/aLo
kU1sJp/NP8uGKu5u9bAcOPflsNKjaillPy/v9vt3bz+cxmeNMWltZY07PLMn16fn
zKN7Mwrygbpo3KCb7eQ9UI2Kd5jHwAmePDqh5DTBgRsgyVc3CXm5wzRhNGoj7am1
Ev2VZx9aBCNUCvk2v4tw36xFNhyVxVoI8ACEssxGUx4pmm+f1++9AtJIHrMWjf9E
ErDJ34rV+d/8yO9F2pbD7KbcFfOhac+fMLnhNxLZwT8bQ/8Aslqp9/qUdtEvmJAQ
XBysKTz8LbKDMy1Gj20eVoGKfN0ndsaOBeYLoQ30
-----END CERTIFICATE-----
