Certificate:
    Data:
        Version: 3 (0x2)
        Serial Number: 5 (0x5)
        Signature Algorithm: sha256WithRSAEncryption
        Issuer: C=CH, ST=Zurich, L=Zurich, O=iMovies, CN=ca_root/emailAddress=aldeleze@student.ethz.ch
        Validity
            Not Before: Oct 20 20:55:16 2020 GMT
            Not After : Oct 20 20:55:16 2021 GMT
        Subject: C=CH, ST=Zurich, O=iMovies, CN=webserver/emailAddress=aldeleze@student.ethz.ch
        Subject Public Key Info:
            Public Key Algorithm: rsaEncryption
                RSA Public-Key: (2048 bit)
                Modulus:
                    00:c8:b6:76:0a:f4:37:a9:9e:b5:a8:03:c0:75:42:
                    94:e2:f1:e7:ae:4f:07:d0:b3:14:e7:64:a0:f0:ad:
                    50:f1:fe:13:1d:ac:7d:39:fe:08:72:c4:f1:b1:46:
                    3b:34:60:ca:3d:9a:a6:e0:92:68:7e:1e:9f:c7:0b:
                    a0:18:19:65:1c:3a:22:d5:16:43:4f:41:08:44:5b:
                    49:f7:c9:b1:b0:06:2f:25:e1:cc:a8:b0:9d:da:4f:
                    98:82:4a:73:7c:03:a2:09:0f:ae:9e:fe:72:51:0f:
                    67:b8:c0:a9:5b:20:73:04:75:0d:a0:a8:d2:25:ef:
                    c4:d6:d1:ba:c7:bf:b1:17:4f:96:c6:0f:9d:3e:ca:
                    c8:15:f7:40:59:b7:92:7d:63:85:d7:24:03:b6:7b:
                    38:14:cb:b0:dc:e8:47:94:f9:08:34:62:99:67:59:
                    d0:7d:08:93:8e:b0:95:0e:37:db:a2:e3:48:29:63:
                    80:e1:82:8c:4c:14:df:f2:b8:29:f1:36:53:65:8b:
                    3c:59:72:47:15:10:67:4f:de:da:9b:81:66:81:27:
                    10:b0:94:c5:b0:0d:90:a7:bb:73:24:4a:5e:ed:f3:
                    d5:a5:8f:c0:11:ef:e6:cf:25:ab:2e:67:f7:a6:85:
                    6f:8b:34:86:e5:f7:f6:2b:53:dc:ab:31:53:40:00:
                    44:df
                Exponent: 65537 (0x10001)
        X509v3 extensions:
            X509v3 Basic Constraints: 
                CA:FALSE
            Netscape Comment: 
                OpenSSL Generated Certificate
            X509v3 Subject Key Identifier: 
                D2:1C:69:CD:85:F6:6F:19:B7:58:C8:91:1D:E6:E4:35:4F:AF:DB:3A
            X509v3 Authority Key Identifier: 
                keyid:DF:3B:2F:E5:B0:57:33:9A:CC:48:FA:D8:90:8F:39:FF:9A:43:67:FF

    Signature Algorithm: sha256WithRSAEncryption
         a5:57:13:c4:d6:64:64:d2:68:e1:4b:dc:af:5b:e0:32:30:bc:
         87:83:98:fb:cd:93:3e:8d:15:e2:72:54:e6:86:da:fb:f2:05:
         e1:b6:45:22:5e:74:d8:ed:67:cb:97:90:5c:c9:c1:6b:33:e8:
         94:ce:62:24:ab:ce:66:bf:22:2a:d5:cd:b6:9b:57:8f:f3:3f:
         11:c6:21:11:19:61:cd:77:d3:29:e4:90:87:8d:aa:fa:b2:68:
         26:b2:ca:96:4c:15:96:10:03:9d:26:f2:1f:3b:25:57:ea:76:
         b4:61:82:51:db:f0:1c:09:a4:a4:da:bc:cc:8b:b4:2e:57:cd:
         2b:49:b7:be:a0:fa:e3:c2:14:fa:7a:2d:fd:85:a5:4b:22:84:
         41:c2:ab:a5:9f:fe:5d:f2:4c:5e:18:2e:79:2b:18:d5:0f:36:
         57:98:dc:d9:75:05:58:02:25:24:de:a8:9f:81:7f:4c:49:2c:
         bb:e8:c8:a4:0e:c9:a6:2b:86:6a:fa:7f:84:74:3d:51:71:68:
         7f:0f:39:6b:de:7f:40:33:02:b8:40:bb:4e:37:7f:58:c1:72:
         d2:a2:95:15:1a:37:7f:bc:45:e1:50:5a:1c:1b:b9:bd:ed:cb:
         ed:55:68:80:10:d7:fd:81:66:6b:6a:24:aa:46:24:e0:96:91:
         ea:54:cd:3b
-----BEGIN CERTIFICATE-----
MIID3zCCAsegAwIBAgIBBTANBgkqhkiG9w0BAQsFADB8MQswCQYDVQQGEwJDSDEP
MA0GA1UECAwGWnVyaWNoMQ8wDQYDVQQHDAZadXJpY2gxEDAOBgNVBAoMB2lNb3Zp
ZXMxEDAOBgNVBAMMB2NhX3Jvb3QxJzAlBgkqhkiG9w0BCQEWGGFsZGVsZXplQHN0
dWRlbnQuZXRoei5jaDAeFw0yMDEwMjAyMDU1MTZaFw0yMTEwMjAyMDU1MTZaMG0x
CzAJBgNVBAYTAkNIMQ8wDQYDVQQIDAZadXJpY2gxEDAOBgNVBAoMB2lNb3ZpZXMx
EjAQBgNVBAMMCXdlYnNlcnZlcjEnMCUGCSqGSIb3DQEJARYYYWxkZWxlemVAc3R1
ZGVudC5ldGh6LmNoMIIBIjANBgkqhkiG9w0BAQEFAAOCAQ8AMIIBCgKCAQEAyLZ2
CvQ3qZ61qAPAdUKU4vHnrk8H0LMU52Sg8K1Q8f4THax9Of4IcsTxsUY7NGDKPZqm
4JJofh6fxwugGBllHDoi1RZDT0EIRFtJ98mxsAYvJeHMqLCd2k+YgkpzfAOiCQ+u
nv5yUQ9nuMCpWyBzBHUNoKjSJe/E1tG6x7+xF0+Wxg+dPsrIFfdAWbeSfWOF1yQD
tns4FMuw3OhHlPkINGKZZ1nQfQiTjrCVDjfbouNIKWOA4YKMTBTf8rgp8TZTZYs8
WXJHFRBnT97am4FmgScQsJTFsA2Qp7tzJEpe7fPVpY/AEe/mzyWrLmf3poVvizSG
5ff2K1PcqzFTQABE3wIDAQABo3sweTAJBgNVHRMEAjAAMCwGCWCGSAGG+EIBDQQf
Fh1PcGVuU1NMIEdlbmVyYXRlZCBDZXJ0aWZpY2F0ZTAdBgNVHQ4EFgQU0hxpzYX2
bxm3WMiRHebkNU+v2zowHwYDVR0jBBgwFoAU3zsv5bBXM5rMSPrYkI85/5pDZ/8w
DQYJKoZIhvcNAQELBQADggEBAKVXE8TWZGTSaOFL3K9b4DIwvIeDmPvNkz6NFeJy
VOaG2vvyBeG2RSJedNjtZ8uXkFzJwWsz6JTOYiSrzma/IirVzbabV4/zPxHGIREZ
Yc130ynkkIeNqvqyaCayypZMFZYQA50m8h87JVfqdrRhglHb8BwJpKTavMyLtC5X
zStJt76g+uPCFPp6Lf2FpUsihEHCq6Wf/l3yTF4YLnkrGNUPNleY3Nl1BVgCJSTe
qJ+Bf0xJLLvoyKQOyaYrhmr6f4R0PVFxaH8POWvef0AzArhAu043f1jBctKilRUa
N3+8ReFQWhwbub3ty+1VaIAQ1/2BZmtqJKpGJOCWkepUzTs=
-----END CERTIFICATE-----
